target datalayout = "e-m:e-p270:32:32-p271:32:32-p272:64:64-i64:64-i128:128-f80:128-n8:16:32:64-S128"
target triple = "x86_64-pc-linux-gnu"

%struct.expert_field = type { i32, i32 }

@hf_uftp_destlist = internal global i32 0, align 4
@hf_uftp_keyinfo = internal global i32 0, align 4
@hf_uftp_keyinfo_func = internal global i32 0, align 4
@hf_uftp_keyinfo_reserved = internal global i32 0, align 4
@hf_uftp_keyinfo_destcount = internal global i32 0, align 4
@hf_uftp_keyinfo_groupmaster_len = internal global i32 0, align 4
@hf_uftp_keyinfo_tstamp = internal global i32 0, align 4
@hf_uftp_keyinfo_destkey = internal global i32 0, align 4
@hf_uftp_keyinfo_destaddr = internal global i32 0, align 4
@hf_uftp_keyinfo_groupmaster = internal global i32 0, align 4
@ett_uftp_keyinfo = internal global i32 0, align 4
@ett_uftp_keyinfo_destkey = internal global i32 0, align 4
@ett_uftp_destlist = internal global i32 0, align 4
@ei_uftp_length_invalid = internal global %struct.expert_field zeroinitializer, align 4
@.str.289 = private unnamed_addr constant [19 x i8] c"Invalid length: %d\00", align 1
@.str.292 = private unnamed_addr constant [35 x i8] c"Invalid length, len = %d, count=%d\00", align 1

; Function Attrs: null_pointer_is_valid sspstrong uwtable
define internal void @dissect_uftp_keyinfo(ptr noundef %0, ptr noundef %1, ptr noundef %2) #0 {
  %4 = alloca ptr, align 8
  %5 = alloca ptr, align 8
  %6 = alloca ptr, align 8
  %7 = alloca ptr, align 8
  %8 = alloca ptr, align 8
  %9 = alloca ptr, align 8
  %10 = alloca ptr, align 8
  %11 = alloca ptr, align 8
  %12 = alloca ptr, align 8
  %13 = alloca i32, align 4
  %14 = alloca i8, align 1
  %15 = alloca i8, align 1
  %16 = alloca i32, align 4
  store ptr %0, ptr %4, align 8
  store ptr %1, ptr %5, align 8
  store ptr %2, ptr %6, align 8
  call void @llvm.lifetime.start.p0(i64 8, ptr %7) #3
  store ptr null, ptr %7, align 8
  call void @llvm.lifetime.start.p0(i64 8, ptr %8) #3
  store ptr null, ptr %8, align 8
  call void @llvm.lifetime.start.p0(i64 8, ptr %9) #3
  store ptr null, ptr %9, align 8
  call void @llvm.lifetime.start.p0(i64 8, ptr %10) #3
  store ptr null, ptr %10, align 8
  call void @llvm.lifetime.start.p0(i64 8, ptr %11) #3
  store ptr null, ptr %11, align 8
  call void @llvm.lifetime.start.p0(i64 8, ptr %12) #3
  store ptr null, ptr %12, align 8
  call void @llvm.lifetime.start.p0(i64 4, ptr %13) #3
  store i32 0, ptr %13, align 4
  call void @llvm.lifetime.start.p0(i64 1, ptr %14) #3
  call void @llvm.lifetime.start.p0(i64 1, ptr %15) #3
  %17 = load ptr, ptr %4, align 8
  %18 = call i32 @tvb_reported_length(ptr noundef %17)
  %19 = icmp ult i32 %18, 12
  br i1 %19, label %20, label %28

20:                                               ; preds = %3
  %21 = load ptr, ptr %6, align 8
  %22 = load ptr, ptr %5, align 8
  %23 = load ptr, ptr %4, align 8
  %24 = load i32, ptr %13, align 4
  %25 = load ptr, ptr %4, align 8
  %26 = call i32 @tvb_reported_length(ptr noundef %25)
  %27 = call ptr (ptr, ptr, ptr, ptr, i32, i32, ptr, ...) @proto_tree_add_expert_format(ptr noundef %21, ptr noundef %22, ptr noundef @ei_uftp_length_invalid, ptr noundef %23, i32 noundef %24, i32 noundef -1, ptr noundef @.str.289, i32 noundef %26)
  store i32 1, ptr %16, align 4
  br label %141

28:                                               ; preds = %3
  %29 = load ptr, ptr %4, align 8
  %30 = call zeroext i8 @tvb_get_uint8(ptr noundef %29, i32 noundef 2)
  store i8 %30, ptr %14, align 1
  %31 = load ptr, ptr %4, align 8
  %32 = call i32 @tvb_reported_length(ptr noundef %31)
  %33 = load i8, ptr %14, align 1
  %34 = zext i8 %33 to i32
  %35 = mul i32 %34, 52
  %36 = add i32 12, %35
  %37 = icmp slt i32 %32, %36
  br i1 %37, label %38, label %48

38:                                               ; preds = %28
  %39 = load ptr, ptr %6, align 8
  %40 = load ptr, ptr %5, align 8
  %41 = load ptr, ptr %4, align 8
  %42 = load i32, ptr %13, align 4
  %43 = load ptr, ptr %4, align 8
  %44 = call i32 @tvb_reported_length(ptr noundef %43)
  %45 = load i8, ptr %14, align 1
  %46 = zext i8 %45 to i32
  %47 = call ptr (ptr, ptr, ptr, ptr, i32, i32, ptr, ...) @proto_tree_add_expert_format(ptr noundef %39, ptr noundef %40, ptr noundef @ei_uftp_length_invalid, ptr noundef %41, i32 noundef %42, i32 noundef -1, ptr noundef @.str.292, i32 noundef %44, i32 noundef %46)
  store i32 1, ptr %16, align 4
  br label %141

48:                                               ; preds = %28
  %49 = load ptr, ptr %6, align 8
  %50 = load i32, ptr @hf_uftp_keyinfo, align 4
  %51 = load ptr, ptr %4, align 8
  %52 = load i32, ptr %13, align 4
  %53 = call ptr @proto_tree_add_item(ptr noundef %49, i32 noundef %50, ptr noundef %51, i32 noundef %52, i32 noundef -1, i32 noundef 0)
  store ptr %53, ptr %7, align 8
  %54 = load ptr, ptr %7, align 8
  %55 = load i32, ptr @ett_uftp_keyinfo, align 4
  %56 = call ptr @proto_item_add_subtree(ptr noundef %54, i32 noundef %55)
  store ptr %56, ptr %10, align 8
  %57 = load ptr, ptr %10, align 8
  %58 = load i32, ptr @hf_uftp_keyinfo_func, align 4
  %59 = load ptr, ptr %4, align 8
  %60 = load i32, ptr %13, align 4
  %61 = call ptr @proto_tree_add_item(ptr noundef %57, i32 noundef %58, ptr noundef %59, i32 noundef %60, i32 noundef 1, i32 noundef 0)
  %62 = load i32, ptr %13, align 4
  %63 = add i32 %62, 1
  store i32 %63, ptr %13, align 4
  %64 = load ptr, ptr %10, align 8
  %65 = load i32, ptr @hf_uftp_keyinfo_reserved, align 4
  %66 = load ptr, ptr %4, align 8
  %67 = load i32, ptr %13, align 4
  %68 = call ptr @proto_tree_add_item(ptr noundef %64, i32 noundef %65, ptr noundef %66, i32 noundef %67, i32 noundef 1, i32 noundef 0)
  %69 = load i32, ptr %13, align 4
  %70 = add i32 %69, 1
  store i32 %70, ptr %13, align 4
  %71 = load ptr, ptr %10, align 8
  %72 = load i32, ptr @hf_uftp_keyinfo_destcount, align 4
  %73 = load ptr, ptr %4, align 8
  %74 = load i32, ptr %13, align 4
  %75 = call ptr @proto_tree_add_item(ptr noundef %71, i32 noundef %72, ptr noundef %73, i32 noundef %74, i32 noundef 1, i32 noundef 0)
  %76 = load i32, ptr %13, align 4
  %77 = add i32 %76, 1
  store i32 %77, ptr %13, align 4
  %78 = load ptr, ptr %10, align 8
  %79 = load i32, ptr @hf_uftp_keyinfo_groupmaster_len, align 4
  %80 = load ptr, ptr %4, align 8
  %81 = load i32, ptr %13, align 4
  %82 = call ptr @proto_tree_add_item(ptr noundef %78, i32 noundef %79, ptr noundef %80, i32 noundef %81, i32 noundef 1, i32 noundef 0)
  %83 = load i32, ptr %13, align 4
  %84 = add i32 %83, 1
  store i32 %84, ptr %13, align 4
  %85 = load ptr, ptr %10, align 8
  %86 = load i32, ptr @hf_uftp_keyinfo_tstamp, align 4
  %87 = load ptr, ptr %4, align 8
  %88 = load i32, ptr %13, align 4
  %89 = call ptr @proto_tree_add_item(ptr noundef %85, i32 noundef %86, ptr noundef %87, i32 noundef %88, i32 noundef 8, i32 noundef 0)
  %90 = load i32, ptr %13, align 4
  %91 = add i32 %90, 8
  store i32 %91, ptr %13, align 4
  %92 = load i8, ptr %14, align 1
  %93 = zext i8 %92 to i32
  %94 = icmp sgt i32 %93, 0
  br i1 %94, label %95, label %107

95:                                               ; preds = %48
  %96 = load ptr, ptr %10, align 8
  %97 = load i32, ptr @hf_uftp_destlist, align 4
  %98 = load ptr, ptr %4, align 8
  %99 = load i32, ptr %13, align 4
  %100 = load i8, ptr %14, align 1
  %101 = zext i8 %100 to i32
  %102 = mul i32 %101, 52
  %103 = call ptr @proto_tree_add_item(ptr noundef %96, i32 noundef %97, ptr noundef %98, i32 noundef %99, i32 noundef %102, i32 noundef 0)
  store ptr %103, ptr %8, align 8
  %104 = load ptr, ptr %8, align 8
  %105 = load i32, ptr @ett_uftp_destlist, align 4
  %106 = call ptr @proto_item_add_subtree(ptr noundef %104, i32 noundef %105)
  store ptr %106, ptr %11, align 8
  br label %107

107:                                              ; preds = %95, %48
  store i8 0, ptr %15, align 1
  br label %108

108:                                              ; preds = %137, %107
  %109 = load i8, ptr %15, align 1
  %110 = zext i8 %109 to i32
  %111 = load i8, ptr %14, align 1
  %112 = zext i8 %111 to i32
  %113 = icmp slt i32 %110, %112
  br i1 %113, label %114, label %140

114:                                              ; preds = %108
  %115 = load ptr, ptr %11, align 8
  %116 = load i32, ptr @hf_uftp_keyinfo_destkey, align 4
  %117 = load ptr, ptr %4, align 8
  %118 = load i32, ptr %13, align 4
  %119 = call ptr @proto_tree_add_item(ptr noundef %115, i32 noundef %116, ptr noundef %117, i32 noundef %118, i32 noundef 52, i32 noundef 0)
  store ptr %119, ptr %9, align 8
  %120 = load ptr, ptr %9, align 8
  %121 = load i32, ptr @ett_uftp_keyinfo_destkey, align 4
  %122 = call ptr @proto_item_add_subtree(ptr noundef %120, i32 noundef %121)
  store ptr %122, ptr %12, align 8
  %123 = load ptr, ptr %12, align 8
  %124 = load i32, ptr @hf_uftp_keyinfo_destaddr, align 4
  %125 = load ptr, ptr %4, align 8
  %126 = load i32, ptr %13, align 4
  %127 = call ptr @proto_tree_add_item(ptr noundef %123, i32 noundef %124, ptr noundef %125, i32 noundef %126, i32 noundef 4, i32 noundef 0)
  %128 = load i32, ptr %13, align 4
  %129 = add i32 %128, 4
  store i32 %129, ptr %13, align 4
  %130 = load ptr, ptr %12, align 8
  %131 = load i32, ptr @hf_uftp_keyinfo_groupmaster, align 4
  %132 = load ptr, ptr %4, align 8
  %133 = load i32, ptr %13, align 4
  %134 = call ptr @proto_tree_add_item(ptr noundef %130, i32 noundef %131, ptr noundef %132, i32 noundef %133, i32 noundef 48, i32 noundef 0)
  %135 = load i32, ptr %13, align 4
  %136 = add i32 %135, 48
  store i32 %136, ptr %13, align 4
  br label %137

137:                                              ; preds = %114
  %138 = load i8, ptr %15, align 1
  %139 = add i8 %138, 1
  store i8 %139, ptr %15, align 1
  br label %108, !llvm.loop !12

140:                                              ; preds = %108
  store i32 0, ptr %16, align 4
  br label %141

141:                                              ; preds = %140, %38, %20
  call void @llvm.lifetime.end.p0(i64 1, ptr %15) #3
  call void @llvm.lifetime.end.p0(i64 1, ptr %14) #3
  call void @llvm.lifetime.end.p0(i64 4, ptr %13) #3
  call void @llvm.lifetime.end.p0(i64 8, ptr %12) #3
  call void @llvm.lifetime.end.p0(i64 8, ptr %11) #3
  call void @llvm.lifetime.end.p0(i64 8, ptr %10) #3
  call void @llvm.lifetime.end.p0(i64 8, ptr %9) #3
  call void @llvm.lifetime.end.p0(i64 8, ptr %8) #3
  call void @llvm.lifetime.end.p0(i64 8, ptr %7) #3
  %142 = load i32, ptr %16, align 4
  switch i32 %142, label %144 [
    i32 0, label %143
    i32 1, label %143
  ]

143:                                              ; preds = %141, %141
  ret void

144:                                              ; preds = %141
  unreachable
}