; Function Attrs: null_pointer_is_valid sspstrong uwtable
define internal fastcc void @dissect_uftp_keyinfo(ptr noundef %0, ptr noundef %1, ptr noundef %2) unnamed_addr #0 {
  %4 = tail call i32 @tvb_reported_length(ptr noundef %0)
  %5 = icmp ult i32 %4, 12
  br i1 %5, label %6, label %9

6:                                                ; preds = %3
  %7 = tail call i32 @tvb_reported_length(ptr noundef %0)
  %8 = tail call ptr (ptr, ptr, ptr, ptr, i32, i32, ptr, ...) @proto_tree_add_expert_format(ptr noundef %2, ptr noundef %1, ptr noundef nonnull @ei_uftp_length_invalid, ptr noundef %0, i32 noundef 0, i32 noundef -1, ptr noundef nonnull @.str.289, i32 noundef %7)
  br label %.loopexit

9:                                                ; preds = %3
  %10 = tail call zeroext i8 @tvb_get_uint8(ptr noundef %0, i32 noundef 2)
  %11 = tail call i32 @tvb_reported_length(ptr noundef %0)
  %12 = zext i8 %10 to i32
  %13 = mul nuw nsw i32 %12, 52
  %14 = add nuw nsw i32 %13, 12
  %15 = icmp slt i32 %11, %14
  br i1 %15, label %16, label %19

16:                                               ; preds = %9
  %17 = tail call i32 @tvb_reported_length(ptr noundef %0)
  %18 = tail call ptr (ptr, ptr, ptr, ptr, i32, i32, ptr, ...) @proto_tree_add_expert_format(ptr noundef %2, ptr noundef %1, ptr noundef nonnull @ei_uftp_length_invalid, ptr noundef %0, i32 noundef 0, i32 noundef -1, ptr noundef nonnull @.str.292, i32 noundef %17, i32 noundef %12)
  br label %.loopexit

19:                                               ; preds = %9
  %20 = load i32, ptr @hf_uftp_keyinfo, align 4
  %21 = tail call ptr @proto_tree_add_item(ptr noundef %2, i32 noundef %20, ptr noundef %0, i32 noundef 0, i32 noundef -1, i32 noundef 0)
  %22 = load i32, ptr @ett_uftp_keyinfo, align 4
  %23 = tail call ptr @proto_item_add_subtree(ptr noundef %21, i32 noundef %22)
  %24 = load i32, ptr @hf_uftp_keyinfo_func, align 4
  %25 = tail call ptr @proto_tree_add_item(ptr noundef %23, i32 noundef %24, ptr noundef %0, i32 noundef 0, i32 noundef 1, i32 noundef 0)
  %26 = load i32, ptr @hf_uftp_keyinfo_reserved, align 4
  %27 = tail call ptr @proto_tree_add_item(ptr noundef %23, i32 noundef %26, ptr noundef %0, i32 noundef 1, i32 noundef 1, i32 noundef 0)
  %28 = load i32, ptr @hf_uftp_keyinfo_destcount, align 4
  %29 = tail call ptr @proto_tree_add_item(ptr noundef %23, i32 noundef %28, ptr noundef %0, i32 noundef 2, i32 noundef 1, i32 noundef 0)
  %30 = load i32, ptr @hf_uftp_keyinfo_groupmaster_len, align 4
  %31 = tail call ptr @proto_tree_add_item(ptr noundef %23, i32 noundef %30, ptr noundef %0, i32 noundef 3, i32 noundef 1, i32 noundef 0)
  %32 = load i32, ptr @hf_uftp_keyinfo_tstamp, align 4
  %33 = tail call ptr @proto_tree_add_item(ptr noundef %23, i32 noundef %32, ptr noundef %0, i32 noundef 4, i32 noundef 8, i32 noundef 0)
  %.not = icmp eq i8 %10, 0
  br i1 %.not, label %.loopexit, label %.lr.ph.preheader

.lr.ph.preheader:                                 ; preds = %19
  %34 = load i32, ptr @hf_uftp_destlist, align 4
  %35 = tail call ptr @proto_tree_add_item(ptr noundef %23, i32 noundef %34, ptr noundef %0, i32 noundef 12, i32 noundef %13, i32 noundef 0)
  %36 = load i32, ptr @ett_uftp_destlist, align 4
  %37 = tail call ptr @proto_item_add_subtree(ptr noundef %35, i32 noundef %36)
  br label %.lr.ph

.lr.ph:                                           ; preds = %.lr.ph.preheader, %.lr.ph
  %.062 = phi i8 [ %48, %.lr.ph ], [ 0, %.lr.ph.preheader ]
  %.05961 = phi i32 [ %47, %.lr.ph ], [ 12, %.lr.ph.preheader ]
  %38 = load i32, ptr @hf_uftp_keyinfo_destkey, align 4
  %39 = tail call ptr @proto_tree_add_item(ptr noundef %37, i32 noundef %38, ptr noundef %0, i32 noundef %.05961, i32 noundef 52, i32 noundef 0)
  %40 = load i32, ptr @ett_uftp_keyinfo_destkey, align 4
  %41 = tail call ptr @proto_item_add_subtree(ptr noundef %39, i32 noundef %40)
  %42 = load i32, ptr @hf_uftp_keyinfo_destaddr, align 4
  %43 = tail call ptr @proto_tree_add_item(ptr noundef %41, i32 noundef %42, ptr noundef %0, i32 noundef %.05961, i32 noundef 4, i32 noundef 0)
  %44 = add nuw nsw i32 %.05961, 4
  %45 = load i32, ptr @hf_uftp_keyinfo_groupmaster, align 4
  %46 = tail call ptr @proto_tree_add_item(ptr noundef %41, i32 noundef %45, ptr noundef %0, i32 noundef %44, i32 noundef 48, i32 noundef 0)
  %47 = add nuw nsw i32 %.05961, 52
  %48 = add nuw i8 %.062, 1
  %exitcond.not = icmp eq i8 %48, %10
  br i1 %exitcond.not, label %.loopexit, label %.lr.ph, !llvm.loop !12

.loopexit:                                        ; preds = %.lr.ph, %19, %16, %6
  ret void
}